target datalayout = "e-m:e-p270:32:32-p271:32:32-p272:64:64-i64:64-i128:128-f80:128-n8:16:32:64-S128"
target triple = "x86_64-pc-linux-gnu"

%struct.RelFileLocator = type { i32, i32, i32 }
%struct.xl_smgr_create = type { %struct.RelFileLocator, i32 }

; Function Attrs: nounwind uwtable
define dso_local void @log_smgrcreate(ptr noundef %0, i32 noundef %1) #0 {
  %3 = alloca ptr, align 8
  %4 = alloca i32, align 4
  %5 = alloca %struct.xl_smgr_create, align 4
  store ptr %0, ptr %3, align 8
  store i32 %1, ptr %4, align 4
  call void @llvm.lifetime.start.p0(i64 16, ptr %5) #8
  %6 = getelementptr inbounds nuw %struct.xl_smgr_create, ptr %5, i32 0, i32 0
  %7 = load ptr, ptr %3, align 8
  call void @llvm.memcpy.p0.p0.i64(ptr align 4 %6, ptr align 4 %7, i64 12, i1 false)
  %8 = load i32, ptr %4, align 4
  %9 = getelementptr inbounds nuw %struct.xl_smgr_create, ptr %5, i32 0, i32 1
  store i32 %8, ptr %9, align 4
  call void @XLogBeginInsert()
  call void @XLogRegisterData(ptr noundef %5, i32 noundef 16)
  %10 = call i64 @XLogInsert(i8 noundef zeroext 2, i8 noundef zeroext 17)
  call void @llvm.lifetime.end.p0(i64 16, ptr %5) #8
  ret void
}