; Function Attrs: nounwind uwtable
define dso_local void @log_smgrcreate(ptr noundef readonly captures(none) %0, i32 noundef %1) local_unnamed_addr #0 {
  %3 = alloca %struct.xl_smgr_create, align 4
  call void @llvm.lifetime.start.p0(i64 16, ptr nonnull %3) #8
  call void @llvm.memcpy.p0.p0.i64(ptr noundef nonnull align 4 dereferenceable(12) %3, ptr noundef nonnull align 4 dereferenceable(12) %0, i64 12, i1 false)
  %4 = getelementptr inbounds nuw i8, ptr %3, i64 12
  store i32 %1, ptr %4, align 4
  tail call void @XLogBeginInsert() #8
  call void @XLogRegisterData(ptr noundef nonnull %3, i32 noundef 16) #8
  %5 = call i64 @XLogInsert(i8 noundef zeroext 2, i8 noundef zeroext 17) #8
  call void @llvm.lifetime.end.p0(i64 16, ptr nonnull %3) #8
  ret void
}